; Function Attrs: mustprogress nofree norecurse nosync nounwind willreturn memory(argmem: readwrite) uwtable
define void @aiMatrix4FromScalingQuaternionPosition(ptr nocapture noundef writeonly %mat, ptr nocapture noundef readonly %scaling, ptr nocapture noundef readonly %rotation, ptr nocapture noundef readonly %position) local_unnamed_addr #11 {
entry:
  %z.i.i = getelementptr inbounds i8, ptr %rotation, i64 12
  %0 = load float, ptr %z.i.i, align 4, !noalias !21
  %mul4.i.i = fmul float %0, %0
  %x.i.i = getelementptr inbounds i8, ptr %rotation, i64 4
  %1 = load float, ptr %rotation, align 4, !noalias !21
  %2 = fneg float %0
  %neg.i.i = fmul float %1, %2
  %mul20.i.i = fmul float %0, %1
  %3 = load float, ptr %scaling, align 4
  %4 = load float, ptr %position, align 4
  %y.i = getelementptr inbounds i8, ptr %scaling, i64 4
  %5 = load float, ptr %y.i, align 4
  %y18.i = getelementptr inbounds i8, ptr %position, i64 4
  %6 = load float, ptr %y18.i, align 4
  %z.i = getelementptr inbounds i8, ptr %scaling, i64 8
  %7 = load float, ptr %z.i, align 4
  %z27.i = getelementptr inbounds i8, ptr %position, i64 8
  %8 = load float, ptr %z27.i, align 4
  %9 = insertelement <2 x float> poison, float %3, i64 0
  %10 = shufflevector <2 x float> %9, <2 x float> poison, <2 x i32> zeroinitializer
  %ref.tmp.sroa.3.0.mat.sroa_idx = getelementptr inbounds i8, ptr %mat, i64 8
  %ref.tmp.sroa.4.0.mat.sroa_idx = getelementptr inbounds i8, ptr %mat, i64 12
  %ref.tmp.sroa.5.0.mat.sroa_idx = getelementptr inbounds i8, ptr %mat, i64 16
  %11 = insertelement <2 x float> poison, float %5, i64 0
  %12 = shufflevector <2 x float> %11, <2 x float> poison, <2 x i32> zeroinitializer
  %ref.tmp.sroa.7.0.mat.sroa_idx = getelementptr inbounds i8, ptr %mat, i64 24
  %ref.tmp.sroa.8.0.mat.sroa_idx = getelementptr inbounds i8, ptr %mat, i64 28
  %ref.tmp.sroa.9.0.mat.sroa_idx = getelementptr inbounds i8, ptr %mat, i64 32
  %13 = load <2 x float>, ptr %x.i.i, align 4, !noalias !21
  %14 = extractelement <2 x float> %13, i64 1
  %15 = tail call float @llvm.fmuladd.f32(float %14, float %14, float %mul4.i.i)
  %16 = tail call float @llvm.fmuladd.f32(float %15, float -2.000000e+00, float 1.000000e+00)
  %17 = extractelement <2 x float> %13, i64 0
  %18 = tail call float @llvm.fmuladd.f32(float %17, float %14, float %neg.i.i)
  %mul.i.i = fmul float %18, 2.000000e+00
  %mul13.i.i = fmul float %14, %1
  %19 = tail call float @llvm.fmuladd.f32(float %17, float %0, float %mul13.i.i)
  %mul14.i.i = fmul float %19, 2.000000e+00
  %20 = tail call float @llvm.fmuladd.f32(float %17, float %14, float %mul20.i.i)
  %mul21.i.i = fmul float %20, 2.000000e+00
  %21 = tail call float @llvm.fmuladd.f32(float %17, float %17, float %mul4.i.i)
  %22 = tail call float @llvm.fmuladd.f32(float %21, float -2.000000e+00, float 1.000000e+00)
  %23 = fneg float %17
  %neg35.i.i = fmul float %1, %23
  %24 = tail call float @llvm.fmuladd.f32(float %14, float %0, float %neg35.i.i)
  %mul36.i.i = fmul float %24, 2.000000e+00
  %25 = fneg float %14
  %26 = insertelement <2 x float> poison, float %1, i64 0
  %27 = shufflevector <2 x float> %26, <2 x float> %13, <2 x i32> <i32 0, i32 2>
  %28 = insertelement <2 x float> poison, float %25, i64 0
  %29 = insertelement <2 x float> %28, float %1, i64 1
  %30 = fmul <2 x float> %27, %29
  %31 = insertelement <2 x float> poison, float %0, i64 0
  %32 = shufflevector <2 x float> %31, <2 x float> poison, <2 x i32> zeroinitializer
  %33 = tail call <2 x float> @llvm.fmuladd.v2f32(<2 x float> %13, <2 x float> %32, <2 x float> %30)
  %34 = fmul <2 x float> %33, <float 2.000000e+00, float 2.000000e+00>
  %mul57.i.i = fmul float %14, %14
  %35 = tail call float @llvm.fmuladd.f32(float %17, float %17, float %mul57.i.i)
  %36 = tail call float @llvm.fmuladd.f32(float %35, float -2.000000e+00, float 1.000000e+00)
  %mul7.i = fmul float %3, %mul14.i.i
  %mul16.i = fmul float %mul36.i.i, %5
  %37 = insertelement <2 x float> poison, float %7, i64 0
  %38 = shufflevector <2 x float> %37, <2 x float> poison, <2 x i32> zeroinitializer
  %39 = fmul <2 x float> %34, %38
  %mul25.i = fmul float %36, %7
  %40 = insertelement <2 x float> poison, float %16, i64 0
  %41 = insertelement <2 x float> %40, float %mul.i.i, i64 1
  %42 = fmul <2 x float> %41, %10
  store <2 x float> %42, ptr %mat, align 4
  store float %mul7.i, ptr %ref.tmp.sroa.3.0.mat.sroa_idx, align 4
  store float %4, ptr %ref.tmp.sroa.4.0.mat.sroa_idx, align 4
  %43 = insertelement <2 x float> poison, float %mul21.i.i, i64 0
  %44 = insertelement <2 x float> %43, float %22, i64 1
  %45 = fmul <2 x float> %44, %12
  store <2 x float> %45, ptr %ref.tmp.sroa.5.0.mat.sroa_idx, align 4
  store float %mul16.i, ptr %ref.tmp.sroa.7.0.mat.sroa_idx, align 4
  store float %6, ptr %ref.tmp.sroa.8.0.mat.sroa_idx, align 4
  store <2 x float> %39, ptr %ref.tmp.sroa.9.0.mat.sroa_idx, align 4
  %ref.tmp.sroa.11.0.mat.sroa_idx = getelementptr inbounds i8, ptr %mat, i64 40
  store float %mul25.i, ptr %ref.tmp.sroa.11.0.mat.sroa_idx, align 4
  %ref.tmp.sroa.12.0.mat.sroa_idx = getelementptr inbounds i8, ptr %mat, i64 44
  store float %8, ptr %ref.tmp.sroa.12.0.mat.sroa_idx, align 4
  %ref.tmp.sroa.13.0.mat.sroa_idx = getelementptr inbounds i8, ptr %mat, i64 48
  store <4 x float> <float 0.000000e+00, float 0.000000e+00, float 0.000000e+00, float 1.000000e+00>, ptr %ref.tmp.sroa.13.0.mat.sroa_idx, align 4
  ret void
}